target datalayout = "e-m:e-p270:32:32-p271:32:32-p272:64:64-i64:64-i128:128-f80:128-n8:16:32:64-S128"
target triple = "x86_64-pc-linux-gnu"

%struct.Cgt_Par_t_ = type { i32, i32, i32, i32, i32, i32, i32, i32, i32 }
%struct.Cgt_Man_t_ = type { ptr, ptr, ptr, ptr, ptr, ptr, ptr, ptr, ptr, ptr, ptr, ptr, ptr, ptr, i32, i32, i32, i32, i32, i32, i32, i32, i64, i64, i64, i64, i64, i64, i64, i64, i64 }
%struct.Aig_Obj_t_ = type { %union.anon, ptr, ptr, i64, i32, i32, %union.anon.0 }
%union.anon = type { ptr }
%union.anon.0 = type { ptr }
%struct.Aig_Man_t_ = type { ptr, ptr, ptr, ptr, ptr, ptr, ptr, %struct.Aig_Obj_t_, i32, i32, i32, i32, i32, i32, [7 x i32], i32, ptr, i32, ptr, i32, ptr, i32, i32, i32, ptr, i32, i32, i32, i32, i32, ptr, ptr, i32, ptr, ptr, i32, ptr, ptr, i32, i32, i32, ptr, ptr, ptr, ptr, ptr, ptr, ptr, ptr, ptr, ptr, ptr, ptr, ptr, ptr, i32, ptr, ptr, ptr, ptr, i32, i64, i64, i64, ptr, ptr }
%struct.timespec = type { i64, i64 }

@stdout = external global ptr, align 8

; Function Attrs: inlinehint nounwind uwtable
define internal void @Bar_ProgressUpdate(ptr noundef %0, i32 noundef %1, ptr noundef %2) #3 {
  %4 = alloca ptr, align 8
  %5 = alloca i32, align 4
  %6 = alloca ptr, align 8
  store ptr %0, ptr %4, align 8, !tbaa !108
  store i32 %1, ptr %5, align 4, !tbaa !31
  store ptr %2, ptr %6, align 8, !tbaa !105
  %7 = load ptr, ptr %4, align 8, !tbaa !108
  %8 = icmp ne ptr %7, null
  br i1 %8, label %9, label %15

9:                                                ; preds = %3
  %10 = load i32, ptr %5, align 4, !tbaa !31
  %11 = load ptr, ptr %4, align 8, !tbaa !108
  %12 = load i32, ptr %11, align 4, !tbaa !31
  %13 = icmp slt i32 %10, %12
  br i1 %13, label %14, label %15

14:                                               ; preds = %9
  br label %19

15:                                               ; preds = %9, %3
  %16 = load ptr, ptr %4, align 8, !tbaa !108
  %17 = load i32, ptr %5, align 4, !tbaa !31
  %18 = load ptr, ptr %6, align 8, !tbaa !105
  call void @Bar_ProgressUpdate_int(ptr noundef %16, i32 noundef %17, ptr noundef %18)
  br label %19

19:                                               ; preds = %15, %14
  ret void
}

; Function Attrs: inlinehint nounwind uwtable
define internal i32 @Aig_ManCoNum(ptr noundef %0) #3 {
  %2 = alloca ptr, align 8
  store ptr %0, ptr %2, align 8, !tbaa !83
  %3 = load ptr, ptr %2, align 8, !tbaa !83
  %4 = getelementptr inbounds nuw %struct.Aig_Man_t_, ptr %3, i32 0, i32 14
  %5 = getelementptr inbounds [7 x i32], ptr %4, i64 0, i64 3
  %6 = load i32, ptr %5, align 4, !tbaa !31
  ret i32 %6
}

; Function Attrs: nounwind uwtable
define void @Cgt_SetDefaultParams(ptr noundef %0) #0 {
  %2 = alloca ptr, align 8
  store ptr %0, ptr %2, align 8, !tbaa !3
  %3 = load ptr, ptr %2, align 8, !tbaa !3
  call void @llvm.memset.p0.i64(ptr align 4 %3, i8 0, i64 36, i1 false)
  %4 = load ptr, ptr %2, align 8, !tbaa !3
  %5 = getelementptr inbounds nuw %struct.Cgt_Par_t_, ptr %4, i32 0, i32 0
  store i32 25, ptr %5, align 4, !tbaa !8
  %6 = load ptr, ptr %2, align 8, !tbaa !3
  %7 = getelementptr inbounds nuw %struct.Cgt_Par_t_, ptr %6, i32 0, i32 1
  store i32 1000, ptr %7, align 4, !tbaa !11
  %8 = load ptr, ptr %2, align 8, !tbaa !3
  %9 = getelementptr inbounds nuw %struct.Cgt_Par_t_, ptr %8, i32 0, i32 2
  store i32 0, ptr %9, align 4, !tbaa !12
  %10 = load ptr, ptr %2, align 8, !tbaa !3
  %11 = getelementptr inbounds nuw %struct.Cgt_Par_t_, ptr %10, i32 0, i32 3
  store i32 10, ptr %11, align 4, !tbaa !13
  %12 = load ptr, ptr %2, align 8, !tbaa !3
  %13 = getelementptr inbounds nuw %struct.Cgt_Par_t_, ptr %12, i32 0, i32 4
  store i32 1000, ptr %13, align 4, !tbaa !14
  %14 = load ptr, ptr %2, align 8, !tbaa !3
  %15 = getelementptr inbounds nuw %struct.Cgt_Par_t_, ptr %14, i32 0, i32 5
  store i32 10, ptr %15, align 4, !tbaa !15
  %16 = load ptr, ptr %2, align 8, !tbaa !3
  %17 = getelementptr inbounds nuw %struct.Cgt_Par_t_, ptr %16, i32 0, i32 6
  store i32 0, ptr %17, align 4, !tbaa !16
  %18 = load ptr, ptr %2, align 8, !tbaa !3
  %19 = getelementptr inbounds nuw %struct.Cgt_Par_t_, ptr %18, i32 0, i32 7
  store i32 0, ptr %19, align 4, !tbaa !17
  ret void
}

; Function Attrs: inlinehint nounwind uwtable
define internal i64 @Abc_Clock() #3 {
  %1 = alloca i64, align 8
  %2 = alloca %struct.timespec, align 8
  %3 = alloca i32, align 4
  %4 = alloca i64, align 8
  call void @llvm.lifetime.start.p0(i64 16, ptr %2) #11
  %5 = call i32 @clock_gettime(i32 noundef 1, ptr noundef %2) #11
  %6 = icmp slt i32 %5, 0
  br i1 %6, label %7, label %8

7:                                                ; preds = %0
  store i64 -1, ptr %1, align 8
  store i32 1, ptr %3, align 4
  br label %19

8:                                                ; preds = %0
  call void @llvm.lifetime.start.p0(i64 8, ptr %4) #11
  %9 = getelementptr inbounds nuw %struct.timespec, ptr %2, i32 0, i32 0
  %10 = load i64, ptr %9, align 8, !tbaa !116
  %11 = mul nsw i64 %10, 1000000
  store i64 %11, ptr %4, align 8, !tbaa !91
  %12 = getelementptr inbounds nuw %struct.timespec, ptr %2, i32 0, i32 1
  %13 = load i64, ptr %12, align 8, !tbaa !118
  %14 = mul nsw i64 %13, 1000000
  %15 = sdiv i64 %14, 1000000000
  %16 = load i64, ptr %4, align 8, !tbaa !91
  %17 = add nsw i64 %16, %15
  store i64 %17, ptr %4, align 8, !tbaa !91
  %18 = load i64, ptr %4, align 8, !tbaa !91
  store i64 %18, ptr %1, align 8
  store i32 1, ptr %3, align 4
  call void @llvm.lifetime.end.p0(i64 8, ptr %4) #11
  br label %19

19:                                               ; preds = %8, %7
  call void @llvm.lifetime.end.p0(i64 16, ptr %2) #11
  %20 = load i64, ptr %1, align 8
  ret i64 %20
}

; Function Attrs: nounwind uwtable
define ptr @Cgt_ClockGatingCandidates(ptr noundef %0, ptr noundef %1, ptr noundef %2, ptr noundef %3) #0 {
  %5 = alloca ptr, align 8
  %6 = alloca ptr, align 8
  %7 = alloca ptr, align 8
  %8 = alloca ptr, align 8
  %9 = alloca ptr, align 8
  %10 = alloca %struct.Cgt_Par_t_, align 4
  %11 = alloca ptr, align 8
  %12 = alloca ptr, align 8
  %13 = alloca i32, align 4
  %14 = alloca i64, align 8
  %15 = alloca i64, align 8
  store ptr %0, ptr %5, align 8, !tbaa !83
  store ptr %1, ptr %6, align 8, !tbaa !83
  store ptr %2, ptr %7, align 8, !tbaa !3
  store ptr %3, ptr %8, align 8, !tbaa !107
  call void @llvm.lifetime.start.p0(i64 8, ptr %9) #11
  store ptr null, ptr %9, align 8, !tbaa !108
  call void @llvm.lifetime.start.p0(i64 36, ptr %10) #11
  call void @llvm.lifetime.start.p0(i64 8, ptr %11) #11
  call void @llvm.lifetime.start.p0(i64 8, ptr %12) #11
  call void @llvm.lifetime.start.p0(i64 4, ptr %13) #11
  call void @llvm.lifetime.start.p0(i64 8, ptr %14) #11
  %16 = call i64 @Abc_Clock()
  store i64 %16, ptr %14, align 8, !tbaa !91
  call void @llvm.lifetime.start.p0(i64 8, ptr %15) #11
  %17 = call i64 @Abc_Clock()
  store i64 %17, ptr %15, align 8, !tbaa !91
  %18 = call i32 @Aig_ManRandom(i32 noundef 1)
  %19 = load ptr, ptr %7, align 8, !tbaa !3
  %20 = icmp eq ptr %19, null
  br i1 %20, label %21, label %22

21:                                               ; preds = %4
  store ptr %10, ptr %7, align 8, !tbaa !3
  call void @Cgt_SetDefaultParams(ptr noundef %10)
  br label %22

22:                                               ; preds = %21, %4
  %23 = load ptr, ptr %5, align 8, !tbaa !83
  %24 = load ptr, ptr %6, align 8, !tbaa !83
  %25 = load ptr, ptr %7, align 8, !tbaa !3
  %26 = call ptr @Cgt_ManCreate(ptr noundef %23, ptr noundef %24, ptr noundef %25)
  store ptr %26, ptr %11, align 8, !tbaa !18
  %27 = load ptr, ptr %8, align 8, !tbaa !107
  %28 = load ptr, ptr %11, align 8, !tbaa !18
  %29 = getelementptr inbounds nuw %struct.Cgt_Man_t_, ptr %28, i32 0, i32 2
  store ptr %27, ptr %29, align 8, !tbaa !76
  %30 = load ptr, ptr %11, align 8, !tbaa !18
  %31 = call ptr @Cgt_ManDeriveAigForGating(ptr noundef %30)
  %32 = load ptr, ptr %11, align 8, !tbaa !18
  %33 = getelementptr inbounds nuw %struct.Cgt_Man_t_, ptr %32, i32 0, i32 7
  store ptr %31, ptr %33, align 8, !tbaa !95
  %34 = call i64 @Abc_Clock()
  %35 = load i64, ptr %14, align 8, !tbaa !91
  %36 = sub nsw i64 %34, %35
  %37 = load ptr, ptr %11, align 8, !tbaa !18
  %38 = getelementptr inbounds nuw %struct.Cgt_Man_t_, ptr %37, i32 0, i32 22
  %39 = load i64, ptr %38, align 8, !tbaa !110
  %40 = add nsw i64 %39, %36
  store i64 %40, ptr %38, align 8, !tbaa !110
  %41 = load ptr, ptr @stdout, align 8, !tbaa !106
  %42 = load ptr, ptr %11, align 8, !tbaa !18
  %43 = getelementptr inbounds nuw %struct.Cgt_Man_t_, ptr %42, i32 0, i32 7
  %44 = load ptr, ptr %43, align 8, !tbaa !95
  %45 = call i32 @Aig_ManCoNum(ptr noundef %44)
  %46 = call ptr @Bar_ProgressStart(ptr noundef %41, i32 noundef %45)
  store ptr %46, ptr %9, align 8, !tbaa !108
  store i32 0, ptr %13, align 4, !tbaa !31
  br label %47

47:                                               ; preds = %54, %22
  %48 = load i32, ptr %13, align 4, !tbaa !31
  %49 = load ptr, ptr %11, align 8, !tbaa !18
  %50 = getelementptr inbounds nuw %struct.Cgt_Man_t_, ptr %49, i32 0, i32 7
  %51 = load ptr, ptr %50, align 8, !tbaa !95
  %52 = call i32 @Aig_ManCoNum(ptr noundef %51)
  %53 = icmp slt i32 %48, %52
  br i1 %53, label %54, label %60

54:                                               ; preds = %47
  %55 = load ptr, ptr %9, align 8, !tbaa !108
  %56 = load i32, ptr %13, align 4, !tbaa !31
  call void @Bar_ProgressUpdate(ptr noundef %55, i32 noundef %56, ptr noundef null)
  %57 = load ptr, ptr %11, align 8, !tbaa !18
  %58 = load i32, ptr %13, align 4, !tbaa !31
  %59 = call i32 @Cgt_ClockGatingRange(ptr noundef %57, i32 noundef %58)
  store i32 %59, ptr %13, align 4, !tbaa !31
  br label %47, !llvm.loop !111

60:                                               ; preds = %47
  %61 = load ptr, ptr %9, align 8, !tbaa !108
  call void @Bar_ProgressStop(ptr noundef %61)
  %62 = load ptr, ptr %11, align 8, !tbaa !18
  %63 = getelementptr inbounds nuw %struct.Cgt_Man_t_, ptr %62, i32 0, i32 5
  %64 = load ptr, ptr %63, align 8, !tbaa !79
  store ptr %64, ptr %12, align 8, !tbaa !86
  %65 = load ptr, ptr %11, align 8, !tbaa !18
  %66 = getelementptr inbounds nuw %struct.Cgt_Man_t_, ptr %65, i32 0, i32 5
  store ptr null, ptr %66, align 8, !tbaa !79
  %67 = call i64 @Abc_Clock()
  %68 = load i64, ptr %15, align 8, !tbaa !91
  %69 = sub nsw i64 %67, %68
  %70 = load ptr, ptr %11, align 8, !tbaa !18
  %71 = getelementptr inbounds nuw %struct.Cgt_Man_t_, ptr %70, i32 0, i32 30
  store i64 %69, ptr %71, align 8, !tbaa !112
  %72 = load ptr, ptr %11, align 8, !tbaa !18
  call void @Cgt_ManStop(ptr noundef %72)
  %73 = load ptr, ptr %12, align 8, !tbaa !86
  call void @llvm.lifetime.end.p0(i64 8, ptr %15) #11
  call void @llvm.lifetime.end.p0(i64 8, ptr %14) #11
  call void @llvm.lifetime.end.p0(i64 4, ptr %13) #11
  call void @llvm.lifetime.end.p0(i64 8, ptr %12) #11
  call void @llvm.lifetime.end.p0(i64 8, ptr %11) #11
  call void @llvm.lifetime.end.p0(i64 36, ptr %10) #11
  call void @llvm.lifetime.end.p0(i64 8, ptr %9) #11
  ret ptr %73
}