; Function Attrs: nounwind uwtable
define ptr @Cgt_ClockGatingCandidates(ptr noundef %0, ptr noundef %1, ptr noundef %2, ptr noundef %3) local_unnamed_addr #4 {
  %5 = alloca %struct.timespec, align 8
  %6 = alloca %struct.timespec, align 8
  %7 = alloca %struct.timespec, align 8
  %8 = alloca %struct.timespec, align 8
  %9 = alloca %struct.Cgt_Par_t_, align 4
  call void @llvm.lifetime.start.p0(i64 36, ptr nonnull %9) #17
  call void @llvm.lifetime.start.p0(i64 16, ptr nonnull %8) #17
  %10 = call i32 @clock_gettime(i32 noundef 1, ptr noundef nonnull %8) #17
  %11 = icmp slt i32 %10, 0
  br i1 %11, label %Abc_Clock.exit, label %12

12:                                               ; preds = %4
  %13 = load i64, ptr %8, align 8, !tbaa !84
  %.neg32 = mul i64 %13, -1000000
  %14 = getelementptr inbounds nuw i8, ptr %8, i64 8
  %15 = load i64, ptr %14, align 8, !tbaa !86
  %.neg = sdiv i64 %15, -1000
  %.neg33 = add i64 %.neg, %.neg32
  br label %Abc_Clock.exit

Abc_Clock.exit:                                   ; preds = %4, %12
  %.0.i.neg = phi i64 [ %.neg33, %12 ], [ 1, %4 ]
  call void @llvm.lifetime.end.p0(i64 16, ptr nonnull %8) #17
  call void @llvm.lifetime.start.p0(i64 16, ptr nonnull %7) #17
  %16 = call i32 @clock_gettime(i32 noundef 1, ptr noundef nonnull %7) #17
  %17 = icmp slt i32 %16, 0
  br i1 %17, label %Abc_Clock.exit27, label %18

18:                                               ; preds = %Abc_Clock.exit
  %19 = load i64, ptr %7, align 8, !tbaa !84
  %.neg35 = mul i64 %19, -1000000
  %20 = getelementptr inbounds nuw i8, ptr %7, i64 8
  %21 = load i64, ptr %20, align 8, !tbaa !86
  %.neg34 = sdiv i64 %21, -1000
  %.neg36 = add i64 %.neg34, %.neg35
  br label %Abc_Clock.exit27

Abc_Clock.exit27:                                 ; preds = %Abc_Clock.exit, %18
  %.0.i26.neg = phi i64 [ %.neg36, %18 ], [ 1, %Abc_Clock.exit ]
  call void @llvm.lifetime.end.p0(i64 16, ptr nonnull %7) #17
  %22 = call i32 @Aig_ManRandom(i32 noundef 1) #17
  %23 = icmp eq ptr %2, null
  br i1 %23, label %24, label %33

24:                                               ; preds = %Abc_Clock.exit27
  %25 = getelementptr inbounds nuw i8, ptr %9, i64 32
  store i32 0, ptr %25, align 4
  store i32 25, ptr %9, align 4, !tbaa !3
  %26 = getelementptr inbounds nuw i8, ptr %9, i64 4
  store i32 1000, ptr %26, align 4, !tbaa !8
  %27 = getelementptr inbounds nuw i8, ptr %9, i64 8
  store i32 0, ptr %27, align 4, !tbaa !9
  %28 = getelementptr inbounds nuw i8, ptr %9, i64 12
  store i32 10, ptr %28, align 4, !tbaa !10
  %29 = getelementptr inbounds nuw i8, ptr %9, i64 16
  store i32 1000, ptr %29, align 4, !tbaa !11
  %30 = getelementptr inbounds nuw i8, ptr %9, i64 20
  store i32 10, ptr %30, align 4, !tbaa !12
  %31 = getelementptr inbounds nuw i8, ptr %9, i64 24
  store i32 0, ptr %31, align 4, !tbaa !13
  %32 = getelementptr inbounds nuw i8, ptr %9, i64 28
  store i32 0, ptr %32, align 4, !tbaa !14
  br label %33

33:                                               ; preds = %24, %Abc_Clock.exit27
  %.0 = phi ptr [ %9, %24 ], [ %2, %Abc_Clock.exit27 ]
  %34 = call ptr @Cgt_ManCreate(ptr noundef %0, ptr noundef %1, ptr noundef nonnull %.0) #17
  %35 = getelementptr inbounds nuw i8, ptr %34, i64 16
  store ptr %3, ptr %35, align 8, !tbaa !71
  %36 = call ptr @Cgt_ManDeriveAigForGating(ptr noundef %34) #17
  %37 = getelementptr inbounds nuw i8, ptr %34, i64 56
  store ptr %36, ptr %37, align 8, !tbaa !90
  call void @llvm.lifetime.start.p0(i64 16, ptr nonnull %6) #17
  %38 = call i32 @clock_gettime(i32 noundef 1, ptr noundef nonnull %6) #17
  %39 = icmp slt i32 %38, 0
  br i1 %39, label %Abc_Clock.exit29, label %40

40:                                               ; preds = %33
  %41 = load i64, ptr %6, align 8, !tbaa !84
  %42 = mul nsw i64 %41, 1000000
  %43 = getelementptr inbounds nuw i8, ptr %6, i64 8
  %44 = load i64, ptr %43, align 8, !tbaa !86
  %45 = sdiv i64 %44, 1000
  %46 = add nsw i64 %45, %42
  br label %Abc_Clock.exit29

Abc_Clock.exit29:                                 ; preds = %33, %40
  %.0.i28 = phi i64 [ %46, %40 ], [ -1, %33 ]
  call void @llvm.lifetime.end.p0(i64 16, ptr nonnull %6) #17
  %47 = add i64 %.0.i28, %.0.i.neg
  %48 = getelementptr inbounds nuw i8, ptr %34, i64 144
  %49 = load i64, ptr %48, align 8, !tbaa !103
  %50 = add nsw i64 %47, %49
  store i64 %50, ptr %48, align 8, !tbaa !103
  %51 = load ptr, ptr @stdout, align 8, !tbaa !99
  %52 = load ptr, ptr %37, align 8, !tbaa !90
  %53 = getelementptr i8, ptr %52, i64 140
  %.val25 = load i32, ptr %53, align 4, !tbaa !35
  %54 = call ptr @Bar_ProgressStart(ptr noundef %51, i32 noundef %.val25) #17
  %55 = load ptr, ptr %37, align 8, !tbaa !90
  %56 = getelementptr i8, ptr %55, i64 140
  %.val37 = load i32, ptr %56, align 4, !tbaa !35
  %57 = icmp sgt i32 %.val37, 0
  br i1 %57, label %.lr.ph, label %._crit_edge

.lr.ph:                                           ; preds = %Abc_Clock.exit29
  %.not.i = icmp eq ptr %54, null
  br i1 %.not.i, label %Bar_ProgressUpdate.exit.us, label %.lr.ph.split

Bar_ProgressUpdate.exit.us:                       ; preds = %.lr.ph, %Bar_ProgressUpdate.exit.us
  %.02338.us = phi i32 [ %58, %Bar_ProgressUpdate.exit.us ], [ 0, %.lr.ph ]
  call void @Bar_ProgressUpdate_int(ptr noundef null, i32 noundef %.02338.us, ptr noundef null) #17
  %58 = call i32 @Cgt_ClockGatingRange(ptr noundef nonnull %34, i32 noundef %.02338.us)
  %59 = load ptr, ptr %37, align 8, !tbaa !90
  %60 = getelementptr i8, ptr %59, i64 140
  %.val.us = load i32, ptr %60, align 4, !tbaa !35
  %61 = icmp slt i32 %58, %.val.us
  br i1 %61, label %Bar_ProgressUpdate.exit.us, label %._crit_edge, !llvm.loop !104

.lr.ph.split:                                     ; preds = %.lr.ph, %Bar_ProgressUpdate.exit
  %.02338 = phi i32 [ %65, %Bar_ProgressUpdate.exit ], [ 0, %.lr.ph ]
  %62 = load i32, ptr %54, align 4, !tbaa !35
  %63 = icmp slt i32 %.02338, %62
  br i1 %63, label %Bar_ProgressUpdate.exit, label %64

64:                                               ; preds = %.lr.ph.split
  call void @Bar_ProgressUpdate_int(ptr noundef nonnull %54, i32 noundef %.02338, ptr noundef null) #17
  br label %Bar_ProgressUpdate.exit

Bar_ProgressUpdate.exit:                          ; preds = %.lr.ph.split, %64
  %65 = call i32 @Cgt_ClockGatingRange(ptr noundef nonnull %34, i32 noundef %.02338)
  %66 = load ptr, ptr %37, align 8, !tbaa !90
  %67 = getelementptr i8, ptr %66, i64 140
  %.val = load i32, ptr %67, align 4, !tbaa !35
  %68 = icmp slt i32 %65, %.val
  br i1 %68, label %.lr.ph.split, label %._crit_edge, !llvm.loop !104

._crit_edge:                                      ; preds = %Bar_ProgressUpdate.exit, %Bar_ProgressUpdate.exit.us, %Abc_Clock.exit29
  call void @Bar_ProgressStop(ptr noundef %54) #17
  %69 = getelementptr inbounds nuw i8, ptr %34, i64 40
  %70 = load ptr, ptr %69, align 8, !tbaa !75
  store ptr null, ptr %69, align 8, !tbaa !75
  call void @llvm.lifetime.start.p0(i64 16, ptr nonnull %5) #17
  %71 = call i32 @clock_gettime(i32 noundef 1, ptr noundef nonnull %5) #17
  %72 = icmp slt i32 %71, 0
  br i1 %72, label %Abc_Clock.exit31, label %73

73:                                               ; preds = %._crit_edge
  %74 = load i64, ptr %5, align 8, !tbaa !84
  %75 = mul nsw i64 %74, 1000000
  %76 = getelementptr inbounds nuw i8, ptr %5, i64 8
  %77 = load i64, ptr %76, align 8, !tbaa !86
  %78 = sdiv i64 %77, 1000
  %79 = add nsw i64 %78, %75
  br label %Abc_Clock.exit31

Abc_Clock.exit31:                                 ; preds = %._crit_edge, %73
  %.0.i30 = phi i64 [ %79, %73 ], [ -1, %._crit_edge ]
  call void @llvm.lifetime.end.p0(i64 16, ptr nonnull %5) #17
  %80 = add i64 %.0.i30, %.0.i26.neg
  %81 = getelementptr inbounds nuw i8, ptr %34, i64 208
  store i64 %80, ptr %81, align 8, !tbaa !105
  call void @Cgt_ManStop(ptr noundef nonnull %34) #17
  call void @llvm.lifetime.end.p0(i64 36, ptr nonnull %9) #17
  ret ptr %70
}